target datalayout = "e-m:e-p270:32:32-p271:32:32-p272:64:64-i64:64-i128:128-f80:128-n8:16:32:64-S128"
target triple = "x86_64-pc-linux-gnu"

%struct.ident_t = type { i32, i32, i32, i32, ptr }
%"class.ncnn::Requantize" = type { %"class.ncnn::Layer", i32, i32, i32, i32, %"class.ncnn::Mat", %"class.ncnn::Mat", %"class.ncnn::Mat", %"class.ncnn::Mat" }
%"class.ncnn::Layer" = type { ptr, i8, i8, i8, i8, i8, i8, i8, i8, i8, i8, i8, i8, i8, i8, i8, i8, i8, i8, i8, i8, i32, ptr, i32, %"class.std::__cxx11::basic_string", %"class.std::__cxx11::basic_string", %"class.std::vector", %"class.std::vector", %"class.std::vector.3", %"class.std::vector.3" }
%"class.std::__cxx11::basic_string" = type { %"struct.std::__cxx11::basic_string<char>::_Alloc_hider", i64, %union.anon }
%"struct.std::__cxx11::basic_string<char>::_Alloc_hider" = type { ptr }
%union.anon = type { i64, [8 x i8] }
%"class.std::vector" = type { %"struct.std::_Vector_base" }
%"struct.std::_Vector_base" = type { %"struct.std::_Vector_base<int, std::allocator<int>>::_Vector_impl" }
%"struct.std::_Vector_base<int, std::allocator<int>>::_Vector_impl" = type { %"struct.std::_Vector_base<int, std::allocator<int>>::_Vector_impl_data" }
%"struct.std::_Vector_base<int, std::allocator<int>>::_Vector_impl_data" = type { ptr, ptr, ptr }
%"class.std::vector.3" = type { %"struct.std::_Vector_base.4" }
%"struct.std::_Vector_base.4" = type { %"struct.std::_Vector_base<ncnn::Mat, std::allocator<ncnn::Mat>>::_Vector_impl" }
%"struct.std::_Vector_base<ncnn::Mat, std::allocator<ncnn::Mat>>::_Vector_impl" = type { %"struct.std::_Vector_base<ncnn::Mat, std::allocator<ncnn::Mat>>::_Vector_impl_data" }
%"struct.std::_Vector_base<ncnn::Mat, std::allocator<ncnn::Mat>>::_Vector_impl_data" = type { ptr, ptr, ptr }
%"class.ncnn::Mat" = type { ptr, ptr, i64, i32, ptr, i32, i32, i32, i32, i32, i64 }

@1 = private unnamed_addr constant %struct.ident_t { i32 0, i32 514, i32 0, i32 22, ptr @0 }, align 8

; Function Attrs: noinline noreturn nounwind uwtable
define linkonce_odr hidden void @__clang_call_terminate(ptr noundef %0) #6 comdat {
  %2 = call ptr @__cxa_begin_catch(ptr %0) #9
  call void @_ZSt9terminatev() #15
  unreachable
}

; Function Attrs: alwaysinline mustprogress nounwind uwtable
define linkonce_odr hidden noundef nonnull align 4 dereferenceable(4) ptr @_ZNK4ncnn3MatixEm(ptr noundef nonnull align 8 dereferenceable(72) %0, i64 noundef %1) #3 comdat align 2 {
  %3 = alloca ptr, align 8
  %4 = alloca i64, align 8
  store ptr %0, ptr %3, align 8, !tbaa !39
  store i64 %1, ptr %4, align 8, !tbaa !64
  %5 = load ptr, ptr %3, align 8
  %6 = getelementptr inbounds nuw %"class.ncnn::Mat", ptr %5, i32 0, i32 0
  %7 = load ptr, ptr %6, align 8, !tbaa !56
  %8 = load i64, ptr %4, align 8, !tbaa !64
  %9 = getelementptr inbounds nuw float, ptr %7, i64 %8
  ret ptr %9
}

; Function Attrs: alwaysinline mustprogress nounwind uwtable
define linkonce_odr hidden noundef ptr @_ZN4ncnn3Mat3rowIaEEPT_i(ptr noundef nonnull align 8 dereferenceable(72) %0, i32 noundef %1) #3 comdat align 2 {
  %3 = alloca ptr, align 8
  %4 = alloca i32, align 4
  store ptr %0, ptr %3, align 8, !tbaa !39
  store i32 %1, ptr %4, align 4, !tbaa !43
  %5 = load ptr, ptr %3, align 8
  %6 = getelementptr inbounds nuw %"class.ncnn::Mat", ptr %5, i32 0, i32 0
  %7 = load ptr, ptr %6, align 8, !tbaa !56
  %8 = getelementptr inbounds nuw %"class.ncnn::Mat", ptr %5, i32 0, i32 6
  %9 = load i32, ptr %8, align 4, !tbaa !44
  %10 = sext i32 %9 to i64
  %11 = load i32, ptr %4, align 4, !tbaa !43
  %12 = sext i32 %11 to i64
  %13 = mul i64 %10, %12
  %14 = getelementptr inbounds nuw %"class.ncnn::Mat", ptr %5, i32 0, i32 2
  %15 = load i64, ptr %14, align 8, !tbaa !58
  %16 = mul i64 %13, %15
  %17 = getelementptr inbounds nuw i8, ptr %7, i64 %16
  ret ptr %17
}

; Function Attrs: alwaysinline mustprogress nounwind uwtable
define linkonce_odr hidden noundef ptr @_ZNK4ncnn3Mat3rowIKiEEPKT_i(ptr noundef nonnull align 8 dereferenceable(72) %0, i32 noundef %1) #3 comdat align 2 {
  %3 = alloca ptr, align 8
  %4 = alloca i32, align 4
  store ptr %0, ptr %3, align 8, !tbaa !39
  store i32 %1, ptr %4, align 4, !tbaa !43
  %5 = load ptr, ptr %3, align 8
  %6 = getelementptr inbounds nuw %"class.ncnn::Mat", ptr %5, i32 0, i32 0
  %7 = load ptr, ptr %6, align 8, !tbaa !56
  %8 = getelementptr inbounds nuw %"class.ncnn::Mat", ptr %5, i32 0, i32 6
  %9 = load i32, ptr %8, align 4, !tbaa !44
  %10 = sext i32 %9 to i64
  %11 = load i32, ptr %4, align 4, !tbaa !43
  %12 = sext i32 %11 to i64
  %13 = mul i64 %10, %12
  %14 = getelementptr inbounds nuw %"class.ncnn::Mat", ptr %5, i32 0, i32 2
  %15 = load i64, ptr %14, align 8, !tbaa !58
  %16 = mul i64 %13, %15
  %17 = getelementptr inbounds nuw i8, ptr %7, i64 %16
  ret ptr %17
}

; Function Attrs: alwaysinline norecurse nounwind uwtable
define internal void @_ZNK4ncnn10Requantize7forwardERKNS_3MatERS1_RKNS_6OptionE.omp_outlined(ptr noalias noundef %0, ptr noalias noundef %1, ptr noundef nonnull align 4 dereferenceable(4) %2, ptr noundef nonnull align 8 dereferenceable(72) %3, ptr noundef nonnull align 8 dereferenceable(72) %4, ptr noundef %5, ptr noundef nonnull align 4 dereferenceable(4) %6) #8 personality ptr @__gxx_personality_v0 {
  %8 = alloca ptr, align 8
  %9 = alloca ptr, align 8
  %10 = alloca ptr, align 8
  %11 = alloca ptr, align 8
  %12 = alloca ptr, align 8
  %13 = alloca ptr, align 8
  %14 = alloca ptr, align 8
  %15 = alloca ptr, align 8
  %16 = alloca ptr, align 8
  %17 = alloca i32, align 4
  %18 = alloca i32, align 4
  %19 = alloca i32, align 4
  %20 = alloca i32, align 4
  %21 = alloca i32, align 4
  %22 = alloca i32, align 4
  %23 = alloca i32, align 4
  %24 = alloca i32, align 4
  %25 = alloca i32, align 4
  %26 = alloca ptr, align 8
  %27 = alloca ptr, align 8
  %28 = alloca float, align 4
  %29 = alloca float, align 4
  %30 = alloca float, align 4
  store ptr %0, ptr %8, align 8, !tbaa !49
  store ptr %1, ptr %9, align 8, !tbaa !49
  store ptr %2, ptr %10, align 8, !tbaa !49
  store ptr %3, ptr %11, align 8, !tbaa !39
  store ptr %4, ptr %12, align 8, !tbaa !39
  store ptr %5, ptr %13, align 8, !tbaa !4
  store ptr %6, ptr %14, align 8, !tbaa !49
  %31 = load ptr, ptr %10, align 8, !tbaa !49
  %32 = load ptr, ptr %11, align 8, !tbaa !39
  %33 = load ptr, ptr %12, align 8, !tbaa !39
  %34 = load ptr, ptr %13, align 8, !tbaa !4
  %35 = load ptr, ptr %14, align 8, !tbaa !49
  store ptr %32, ptr %15, align 8
  store ptr %33, ptr %16, align 8
  call void @llvm.lifetime.start.p0(i64 4, ptr %17) #9
  call void @llvm.lifetime.start.p0(i64 4, ptr %18) #9
  %36 = load i32, ptr %31, align 4, !tbaa !43
  store i32 %36, ptr %18, align 4, !tbaa !43
  call void @llvm.lifetime.start.p0(i64 4, ptr %19) #9
  %37 = load i32, ptr %18, align 4, !tbaa !43
  %38 = sub nsw i32 %37, 0
  %39 = sdiv i32 %38, 1
  %40 = sub nsw i32 %39, 1
  store i32 %40, ptr %19, align 4, !tbaa !43
  call void @llvm.lifetime.start.p0(i64 4, ptr %20) #9
  store i32 0, ptr %20, align 4, !tbaa !43
  call void @llvm.lifetime.end.p0(i64 4, ptr %20) #9
  %41 = load i32, ptr %18, align 4, !tbaa !43
  %42 = icmp slt i32 0, %41
  br i1 %42, label %43, label %150

43:                                               ; preds = %7
  call void @llvm.lifetime.start.p0(i64 4, ptr %21) #9
  store i32 0, ptr %21, align 4, !tbaa !43
  call void @llvm.lifetime.start.p0(i64 4, ptr %22) #9
  %44 = load i32, ptr %19, align 4, !tbaa !43
  store i32 %44, ptr %22, align 4, !tbaa !43
  call void @llvm.lifetime.start.p0(i64 4, ptr %23) #9
  store i32 1, ptr %23, align 4, !tbaa !43
  call void @llvm.lifetime.start.p0(i64 4, ptr %24) #9
  store i32 0, ptr %24, align 4, !tbaa !43
  call void @llvm.lifetime.start.p0(i64 4, ptr %25) #9
  %45 = load ptr, ptr %8, align 8
  %46 = load i32, ptr %45, align 4, !tbaa !43
  call void @__kmpc_for_static_init_4(ptr @1, i32 %46, i32 34, ptr %24, ptr %21, ptr %22, ptr %23, i32 1, i32 1)
  %47 = load i32, ptr %22, align 4, !tbaa !43
  %48 = load i32, ptr %19, align 4, !tbaa !43
  %49 = icmp sgt i32 %47, %48
  br i1 %49, label %50, label %52

50:                                               ; preds = %43
  %51 = load i32, ptr %19, align 4, !tbaa !43
  br label %54

52:                                               ; preds = %43
  %53 = load i32, ptr %22, align 4, !tbaa !43
  br label %54

54:                                               ; preds = %52, %50
  %55 = phi i32 [ %51, %50 ], [ %53, %52 ]
  store i32 %55, ptr %22, align 4, !tbaa !43
  %56 = load i32, ptr %21, align 4, !tbaa !43
  store i32 %56, ptr %17, align 4, !tbaa !43
  br label %57

57:                                               ; preds = %143, %54
  %58 = load i32, ptr %17, align 4, !tbaa !43
  %59 = load i32, ptr %22, align 4, !tbaa !43
  %60 = icmp sle i32 %58, %59
  br i1 %60, label %62, label %61

61:                                               ; preds = %57
  br label %146

62:                                               ; preds = %57
  %63 = load i32, ptr %17, align 4, !tbaa !43
  %64 = mul nsw i32 %63, 1
  %65 = add nsw i32 0, %64
  store i32 %65, ptr %25, align 4, !tbaa !43
  call void @llvm.lifetime.start.p0(i64 8, ptr %26) #9
  %66 = load ptr, ptr %15, align 8, !tbaa !39
  %67 = load i32, ptr %25, align 4, !tbaa !43
  %68 = invoke noundef ptr @_ZNK4ncnn3Mat3rowIKiEEPKT_i(ptr noundef nonnull align 8 dereferenceable(72) %66, i32 noundef %67)
          to label %69 unwind label %151

69:                                               ; preds = %62
  store ptr %68, ptr %26, align 8, !tbaa !49
  call void @llvm.lifetime.start.p0(i64 8, ptr %27) #9
  %70 = load ptr, ptr %16, align 8, !tbaa !39
  %71 = load i32, ptr %25, align 4, !tbaa !43
  %72 = invoke noundef ptr @_ZN4ncnn3Mat3rowIaEEPT_i(ptr noundef nonnull align 8 dereferenceable(72) %70, i32 noundef %71)
          to label %73 unwind label %151

73:                                               ; preds = %69
  store ptr %72, ptr %27, align 8, !tbaa !50
  call void @llvm.lifetime.start.p0(i64 4, ptr %28) #9
  %74 = getelementptr inbounds nuw %"class.ncnn::Requantize", ptr %34, i32 0, i32 1
  %75 = load i32, ptr %74, align 8, !tbaa !13
  %76 = icmp eq i32 %75, 1
  br i1 %76, label %77, label %82

77:                                               ; preds = %73
  %78 = getelementptr inbounds nuw %"class.ncnn::Requantize", ptr %34, i32 0, i32 6
  %79 = invoke noundef nonnull align 4 dereferenceable(4) ptr @_ZNK4ncnn3MatixEm(ptr noundef nonnull align 8 dereferenceable(72) %78, i64 noundef 0)
          to label %80 unwind label %151

80:                                               ; preds = %77
  %81 = load float, ptr %79, align 4, !tbaa !51
  br label %89

82:                                               ; preds = %73
  %83 = getelementptr inbounds nuw %"class.ncnn::Requantize", ptr %34, i32 0, i32 6
  %84 = load i32, ptr %25, align 4, !tbaa !43
  %85 = sext i32 %84 to i64
  %86 = invoke noundef nonnull align 4 dereferenceable(4) ptr @_ZNK4ncnn3MatixEm(ptr noundef nonnull align 8 dereferenceable(72) %83, i64 noundef %85)
          to label %87 unwind label %151

87:                                               ; preds = %82
  %88 = load float, ptr %86, align 4, !tbaa !51
  br label %89

89:                                               ; preds = %87, %80
  %90 = phi fast float [ %81, %80 ], [ %88, %87 ]
  store float %90, ptr %28, align 4, !tbaa !51
  call void @llvm.lifetime.start.p0(i64 4, ptr %29) #9
  %91 = getelementptr inbounds nuw %"class.ncnn::Requantize", ptr %34, i32 0, i32 3
  %92 = load i32, ptr %91, align 8, !tbaa !35
  %93 = icmp eq i32 %92, 0
  br i1 %93, label %94, label %95

94:                                               ; preds = %89
  br label %113

95:                                               ; preds = %89
  %96 = getelementptr inbounds nuw %"class.ncnn::Requantize", ptr %34, i32 0, i32 3
  %97 = load i32, ptr %96, align 8, !tbaa !35
  %98 = icmp eq i32 %97, 1
  br i1 %98, label %99, label %104

99:                                               ; preds = %95
  %100 = getelementptr inbounds nuw %"class.ncnn::Requantize", ptr %34, i32 0, i32 8
  %101 = invoke noundef nonnull align 4 dereferenceable(4) ptr @_ZNK4ncnn3MatixEm(ptr noundef nonnull align 8 dereferenceable(72) %100, i64 noundef 0)
          to label %102 unwind label %151

102:                                              ; preds = %99
  %103 = load float, ptr %101, align 4, !tbaa !51
  br label %111

104:                                              ; preds = %95
  %105 = getelementptr inbounds nuw %"class.ncnn::Requantize", ptr %34, i32 0, i32 8
  %106 = load i32, ptr %25, align 4, !tbaa !43
  %107 = sext i32 %106 to i64
  %108 = invoke noundef nonnull align 4 dereferenceable(4) ptr @_ZNK4ncnn3MatixEm(ptr noundef nonnull align 8 dereferenceable(72) %105, i64 noundef %107)
          to label %109 unwind label %151

109:                                              ; preds = %104
  %110 = load float, ptr %108, align 4, !tbaa !51
  br label %111

111:                                              ; preds = %109, %102
  %112 = phi fast float [ %103, %102 ], [ %110, %109 ]
  br label %113

113:                                              ; preds = %111, %94
  %114 = phi fast float [ 0.000000e+00, %94 ], [ %112, %111 ]
  store float %114, ptr %29, align 4, !tbaa !51
  call void @llvm.lifetime.start.p0(i64 4, ptr %30) #9
  %115 = getelementptr inbounds nuw %"class.ncnn::Requantize", ptr %34, i32 0, i32 2
  %116 = load i32, ptr %115, align 4, !tbaa !34
  %117 = icmp eq i32 %116, 1
  br i1 %117, label %118, label %123

118:                                              ; preds = %113
  %119 = getelementptr inbounds nuw %"class.ncnn::Requantize", ptr %34, i32 0, i32 7
  %120 = invoke noundef nonnull align 4 dereferenceable(4) ptr @_ZNK4ncnn3MatixEm(ptr noundef nonnull align 8 dereferenceable(72) %119, i64 noundef 0)
          to label %121 unwind label %151

121:                                              ; preds = %118
  %122 = load float, ptr %120, align 4, !tbaa !51
  br label %130

123:                                              ; preds = %113
  %124 = getelementptr inbounds nuw %"class.ncnn::Requantize", ptr %34, i32 0, i32 7
  %125 = load i32, ptr %25, align 4, !tbaa !43
  %126 = sext i32 %125 to i64
  %127 = invoke noundef nonnull align 4 dereferenceable(4) ptr @_ZNK4ncnn3MatixEm(ptr noundef nonnull align 8 dereferenceable(72) %124, i64 noundef %126)
          to label %128 unwind label %151

128:                                              ; preds = %123
  %129 = load float, ptr %127, align 4, !tbaa !51
  br label %130

130:                                              ; preds = %128, %121
  %131 = phi fast float [ %122, %121 ], [ %129, %128 ]
  store float %131, ptr %30, align 4, !tbaa !51
  %132 = load ptr, ptr %26, align 8, !tbaa !49
  %133 = load ptr, ptr %27, align 8, !tbaa !50
  %134 = load float, ptr %28, align 4, !tbaa !51
  %135 = load float, ptr %29, align 4, !tbaa !51
  %136 = load float, ptr %30, align 4, !tbaa !51
  %137 = getelementptr inbounds nuw %"class.ncnn::Requantize", ptr %34, i32 0, i32 4
  %138 = load i32, ptr %137, align 4, !tbaa !36
  %139 = getelementptr inbounds nuw %"class.ncnn::Requantize", ptr %34, i32 0, i32 5
  %140 = load i32, ptr %35, align 4, !tbaa !43
  invoke void @_ZN4ncnnL10requantizeEPKiPafffiRKNS_3MatEi(ptr noundef %132, ptr noundef %133, float noundef nofpclass(nan inf) %134, float noundef nofpclass(nan inf) %135, float noundef nofpclass(nan inf) %136, i32 noundef %138, ptr noundef nonnull align 8 dereferenceable(72) %139, i32 noundef %140)
          to label %141 unwind label %151

141:                                              ; preds = %130
  call void @llvm.lifetime.end.p0(i64 4, ptr %30) #9
  call void @llvm.lifetime.end.p0(i64 4, ptr %29) #9
  call void @llvm.lifetime.end.p0(i64 4, ptr %28) #9
  call void @llvm.lifetime.end.p0(i64 8, ptr %27) #9
  call void @llvm.lifetime.end.p0(i64 8, ptr %26) #9
  br label %142

142:                                              ; preds = %141
  br label %143

143:                                              ; preds = %142
  %144 = load i32, ptr %17, align 4, !tbaa !43
  %145 = add nsw i32 %144, 1
  store i32 %145, ptr %17, align 4, !tbaa !43
  br label %57

146:                                              ; preds = %61
  br label %147

147:                                              ; preds = %146
  %148 = load ptr, ptr %8, align 8
  %149 = load i32, ptr %148, align 4, !tbaa !43
  call void @__kmpc_for_static_fini(ptr @1, i32 %149)
  call void @llvm.lifetime.end.p0(i64 4, ptr %25) #9
  call void @llvm.lifetime.end.p0(i64 4, ptr %24) #9
  call void @llvm.lifetime.end.p0(i64 4, ptr %23) #9
  call void @llvm.lifetime.end.p0(i64 4, ptr %22) #9
  call void @llvm.lifetime.end.p0(i64 4, ptr %21) #9
  br label %150

150:                                              ; preds = %147, %7
  call void @llvm.lifetime.end.p0(i64 4, ptr %19) #9
  call void @llvm.lifetime.end.p0(i64 4, ptr %18) #9
  call void @llvm.lifetime.end.p0(i64 4, ptr %17) #9
  ret void

151:                                              ; preds = %130, %123, %118, %104, %99, %82, %77, %69, %62
  %152 = landingpad { ptr, i32 }
          catch ptr null
  %153 = extractvalue { ptr, i32 } %152, 0
  call void @__clang_call_terminate(ptr %153) #15
  unreachable
}