; Function Attrs: alwaysinline norecurse nounwind uwtable
define internal void @_ZNK4ncnn10Requantize7forwardERKNS_3MatERS1_RKNS_6OptionE.omp_outlined(ptr noalias noundef readonly captures(none) %0, ptr noalias readnone captures(none) %1, ptr noundef nonnull readonly align 4 captures(none) dereferenceable(4) %2, ptr noundef nonnull readonly align 8 captures(none) dereferenceable(72) %3, ptr noundef nonnull readonly align 8 captures(none) dereferenceable(72) %4, ptr noundef readonly captures(none) %5, ptr noundef nonnull readonly align 4 captures(none) dereferenceable(4) %6) #9 personality ptr @__gxx_personality_v0 {
  %8 = alloca i32, align 4
  %9 = alloca i32, align 4
  %10 = alloca i32, align 4
  %11 = alloca i32, align 4
  %12 = load i32, ptr %2, align 4, !tbaa !44
  %13 = icmp sgt i32 %12, 0
  br i1 %13, label %14, label %70

14:                                               ; preds = %7
  %15 = add nsw i32 %12, -1
  call void @llvm.lifetime.start.p0(i64 4, ptr nonnull %8) #10
  store i32 0, ptr %8, align 4, !tbaa !44
  call void @llvm.lifetime.start.p0(i64 4, ptr nonnull %9) #10
  store i32 %15, ptr %9, align 4, !tbaa !44
  call void @llvm.lifetime.start.p0(i64 4, ptr nonnull %10) #10
  store i32 1, ptr %10, align 4, !tbaa !44
  call void @llvm.lifetime.start.p0(i64 4, ptr nonnull %11) #10
  store i32 0, ptr %11, align 4, !tbaa !44
  %16 = load i32, ptr %0, align 4, !tbaa !44
  call void @__kmpc_for_static_init_4(ptr nonnull @1, i32 %16, i32 34, ptr nonnull %11, ptr nonnull %8, ptr nonnull %9, ptr nonnull %10, i32 1, i32 1)
  %17 = load i32, ptr %9, align 4, !tbaa !44
  %18 = call i32 @llvm.smin.i32(i32 %17, i32 %15)
  store i32 %18, ptr %9, align 4, !tbaa !44
  %19 = load i32, ptr %8, align 4, !tbaa !44
  %.not28 = icmp sgt i32 %19, %18
  br i1 %.not28, label %._crit_edge, label %.lr.ph

.lr.ph:                                           ; preds = %14
  %20 = getelementptr inbounds nuw i8, ptr %3, i64 44
  %21 = getelementptr inbounds nuw i8, ptr %3, i64 16
  %22 = getelementptr inbounds nuw i8, ptr %4, i64 44
  %23 = getelementptr inbounds nuw i8, ptr %4, i64 16
  %24 = getelementptr inbounds nuw i8, ptr %5, i64 208
  %25 = getelementptr inbounds nuw i8, ptr %5, i64 296
  %26 = getelementptr inbounds nuw i8, ptr %5, i64 216
  %27 = getelementptr inbounds nuw i8, ptr %5, i64 440
  %28 = getelementptr inbounds nuw i8, ptr %5, i64 212
  %29 = getelementptr inbounds nuw i8, ptr %5, i64 368
  %30 = getelementptr inbounds nuw i8, ptr %5, i64 220
  %31 = getelementptr inbounds nuw i8, ptr %5, i64 224
  %32 = sext i32 %19 to i64
  br label %33

33:                                               ; preds = %.lr.ph, %60
  %indvars.iv = phi i64 [ %32, %.lr.ph ], [ %indvars.iv.next, %60 ]
  %34 = load ptr, ptr %3, align 8, !tbaa !16
  %35 = load i32, ptr %20, align 4, !tbaa !40
  %36 = sext i32 %35 to i64
  %37 = mul nsw i64 %indvars.iv, %36
  %38 = load i64, ptr %21, align 8, !tbaa !37
  %39 = mul i64 %37, %38
  %40 = getelementptr inbounds nuw i8, ptr %34, i64 %39
  %41 = load ptr, ptr %4, align 8, !tbaa !16
  %42 = load i32, ptr %22, align 4, !tbaa !40
  %43 = sext i32 %42 to i64
  %44 = mul nsw i64 %indvars.iv, %43
  %45 = load i64, ptr %23, align 8, !tbaa !37
  %46 = mul i64 %44, %45
  %47 = getelementptr inbounds nuw i8, ptr %41, i64 %46
  %48 = load i32, ptr %24, align 8, !tbaa !18
  %49 = icmp eq i32 %48, 1
  %50 = load ptr, ptr %25, align 8, !tbaa !16
  %.in.idx = select i1 %49, i64 0, i64 %indvars.iv
  %.in = getelementptr inbounds nuw float, ptr %50, i64 %.in.idx
  %51 = load float, ptr %.in, align 4, !tbaa !47
  %52 = load i32, ptr %26, align 8, !tbaa !35
  switch i32 %52, label %56 [
    i32 0, label %60
    i32 1, label %53
  ]

53:                                               ; preds = %33
  %54 = load ptr, ptr %27, align 8, !tbaa !16
  %55 = load float, ptr %54, align 4, !tbaa !47
  br label %60

56:                                               ; preds = %33
  %57 = load ptr, ptr %27, align 8, !tbaa !16
  %58 = getelementptr inbounds nuw float, ptr %57, i64 %indvars.iv
  %59 = load float, ptr %58, align 4, !tbaa !47
  br label %60

60:                                               ; preds = %33, %53, %56
  %61 = phi fast float [ 0.000000e+00, %33 ], [ %55, %53 ], [ %59, %56 ]
  %62 = load i32, ptr %28, align 4, !tbaa !34
  %63 = icmp eq i32 %62, 1
  %64 = load ptr, ptr %29, align 8, !tbaa !16
  %.in27.idx = select i1 %63, i64 0, i64 %indvars.iv
  %.in27 = getelementptr inbounds nuw float, ptr %64, i64 %.in27.idx
  %65 = load float, ptr %.in27, align 4, !tbaa !47
  %66 = load i32, ptr %30, align 4, !tbaa !36
  %67 = load i32, ptr %6, align 4, !tbaa !44
  call fastcc void @_ZN4ncnnL10requantizeEPKiPafffiRKNS_3MatEi(ptr noundef %40, ptr noundef %47, float noundef nofpclass(nan inf) %51, float noundef nofpclass(nan inf) %61, float noundef nofpclass(nan inf) %65, i32 noundef %66, ptr noundef nonnull align 8 dereferenceable(72) %31, i32 noundef %67)
  %indvars.iv.next = add nsw i64 %indvars.iv, 1
  %68 = load i32, ptr %9, align 4, !tbaa !44
  %69 = sext i32 %68 to i64
  %.not.not = icmp slt i64 %indvars.iv, %69
  br i1 %.not.not, label %33, label %._crit_edge

._crit_edge:                                      ; preds = %60, %14
  call void @__kmpc_for_static_fini(ptr nonnull @1, i32 %16)
  call void @llvm.lifetime.end.p0(i64 4, ptr nonnull %11) #10
  call void @llvm.lifetime.end.p0(i64 4, ptr nonnull %10) #10
  call void @llvm.lifetime.end.p0(i64 4, ptr nonnull %9) #10
  call void @llvm.lifetime.end.p0(i64 4, ptr nonnull %8) #10
  br label %70

70:                                               ; preds = %._crit_edge, %7
  ret void
}